target datalayout = "e-m:e-p270:32:32-p271:32:32-p272:64:64-i64:64-i128:128-f80:128-n8:16:32:64-S128"
target triple = "x86_64-pc-linux-gnu"

%struct._object = type { %union.anon, ptr }
%union.anon = type { i64 }
%struct.typevartupleobject = type { %struct._object, ptr, ptr, ptr }

; Function Attrs: inlinehint nounwind uwtable
define internal ptr @_Py_TYPE(ptr noundef %0) #3 {
  %2 = alloca ptr, align 8
  store ptr %0, ptr %2, align 8, !tbaa !4
  %3 = load ptr, ptr %2, align 8, !tbaa !4
  %4 = getelementptr inbounds nuw %struct._object, ptr %3, i32 0, i32 1
  %5 = load ptr, ptr %4, align 8, !tbaa !26
  ret ptr %5
}

; Function Attrs: nounwind uwtable
define internal i32 @typevartuple_traverse(ptr noundef %0, ptr noundef %1, ptr noundef %2) #0 {
  %4 = alloca i32, align 4
  %5 = alloca ptr, align 8
  %6 = alloca ptr, align 8
  %7 = alloca ptr, align 8
  %8 = alloca i32, align 4
  %9 = alloca i32, align 4
  %10 = alloca i32, align 4
  %11 = alloca i32, align 4
  store ptr %0, ptr %5, align 8, !tbaa !4
  store ptr %1, ptr %6, align 8, !tbaa !30
  store ptr %2, ptr %7, align 8, !tbaa !30
  br label %12

12:                                               ; preds = %3
  %13 = load ptr, ptr %5, align 8, !tbaa !4
  %14 = call ptr @_Py_TYPE(ptr noundef %13)
  %15 = icmp ne ptr %14, null
  br i1 %15, label %16, label %30

16:                                               ; preds = %12
  call void @llvm.lifetime.start.p0(i64 4, ptr %8) #6
  %17 = load ptr, ptr %6, align 8, !tbaa !30
  %18 = load ptr, ptr %5, align 8, !tbaa !4
  %19 = call ptr @_Py_TYPE(ptr noundef %18)
  %20 = load ptr, ptr %7, align 8, !tbaa !30
  %21 = call i32 %17(ptr noundef %19, ptr noundef %20)
  store i32 %21, ptr %8, align 4, !tbaa !13
  %22 = load i32, ptr %8, align 4, !tbaa !13
  %23 = icmp ne i32 %22, 0
  br i1 %23, label %24, label %26

24:                                               ; preds = %16
  %25 = load i32, ptr %8, align 4, !tbaa !13
  store i32 %25, ptr %4, align 4
  store i32 1, ptr %9, align 4
  br label %27

26:                                               ; preds = %16
  store i32 0, ptr %9, align 4
  br label %27

27:                                               ; preds = %26, %24
  call void @llvm.lifetime.end.p0(i64 4, ptr %8) #6
  %28 = load i32, ptr %9, align 4
  switch i32 %28, label %82 [
    i32 0, label %29
    i32 1, label %80
  ]

29:                                               ; preds = %27
  br label %30

30:                                               ; preds = %29, %12
  br label %31

31:                                               ; preds = %30
  br label %32

32:                                               ; preds = %31
  %33 = load ptr, ptr %5, align 8, !tbaa !4
  %34 = getelementptr inbounds nuw %struct.typevartupleobject, ptr %33, i32 0, i32 2
  %35 = load ptr, ptr %34, align 8, !tbaa !33
  %36 = icmp ne ptr %35, null
  br i1 %36, label %37, label %52

37:                                               ; preds = %32
  call void @llvm.lifetime.start.p0(i64 4, ptr %10) #6
  %38 = load ptr, ptr %6, align 8, !tbaa !30
  %39 = load ptr, ptr %5, align 8, !tbaa !4
  %40 = getelementptr inbounds nuw %struct.typevartupleobject, ptr %39, i32 0, i32 2
  %41 = load ptr, ptr %40, align 8, !tbaa !33
  %42 = load ptr, ptr %7, align 8, !tbaa !30
  %43 = call i32 %38(ptr noundef %41, ptr noundef %42)
  store i32 %43, ptr %10, align 4, !tbaa !13
  %44 = load i32, ptr %10, align 4, !tbaa !13
  %45 = icmp ne i32 %44, 0
  br i1 %45, label %46, label %48

46:                                               ; preds = %37
  %47 = load i32, ptr %10, align 4, !tbaa !13
  store i32 %47, ptr %4, align 4
  store i32 1, ptr %9, align 4
  br label %49

48:                                               ; preds = %37
  store i32 0, ptr %9, align 4
  br label %49

49:                                               ; preds = %48, %46
  call void @llvm.lifetime.end.p0(i64 4, ptr %10) #6
  %50 = load i32, ptr %9, align 4
  switch i32 %50, label %82 [
    i32 0, label %51
    i32 1, label %80
  ]

51:                                               ; preds = %49
  br label %52

52:                                               ; preds = %51, %32
  br label %53

53:                                               ; preds = %52
  br label %54

54:                                               ; preds = %53
  %55 = load ptr, ptr %5, align 8, !tbaa !4
  %56 = getelementptr inbounds nuw %struct.typevartupleobject, ptr %55, i32 0, i32 3
  %57 = load ptr, ptr %56, align 8, !tbaa !34
  %58 = icmp ne ptr %57, null
  br i1 %58, label %59, label %74

59:                                               ; preds = %54
  call void @llvm.lifetime.start.p0(i64 4, ptr %11) #6
  %60 = load ptr, ptr %6, align 8, !tbaa !30
  %61 = load ptr, ptr %5, align 8, !tbaa !4
  %62 = getelementptr inbounds nuw %struct.typevartupleobject, ptr %61, i32 0, i32 3
  %63 = load ptr, ptr %62, align 8, !tbaa !34
  %64 = load ptr, ptr %7, align 8, !tbaa !30
  %65 = call i32 %60(ptr noundef %63, ptr noundef %64)
  store i32 %65, ptr %11, align 4, !tbaa !13
  %66 = load i32, ptr %11, align 4, !tbaa !13
  %67 = icmp ne i32 %66, 0
  br i1 %67, label %68, label %70

68:                                               ; preds = %59
  %69 = load i32, ptr %11, align 4, !tbaa !13
  store i32 %69, ptr %4, align 4
  store i32 1, ptr %9, align 4
  br label %71

70:                                               ; preds = %59
  store i32 0, ptr %9, align 4
  br label %71

71:                                               ; preds = %70, %68
  call void @llvm.lifetime.end.p0(i64 4, ptr %11) #6
  %72 = load i32, ptr %9, align 4
  switch i32 %72, label %82 [
    i32 0, label %73
    i32 1, label %80
  ]

73:                                               ; preds = %71
  br label %74

74:                                               ; preds = %73, %54
  br label %75

75:                                               ; preds = %74
  %76 = load ptr, ptr %5, align 8, !tbaa !4
  %77 = load ptr, ptr %6, align 8, !tbaa !30
  %78 = load ptr, ptr %7, align 8, !tbaa !30
  %79 = call i32 @PyObject_VisitManagedDict(ptr noundef %76, ptr noundef %77, ptr noundef %78)
  store i32 0, ptr %4, align 4
  br label %80

80:                                               ; preds = %75, %71, %49, %27
  %81 = load i32, ptr %4, align 4
  ret i32 %81

82:                                               ; preds = %71, %49, %27
  unreachable
}