; Function Attrs: nounwind uwtable
define internal i32 @typevartuple_traverse(ptr noundef %0, ptr noundef %1, ptr noundef %2) #0 {
  %4 = getelementptr i8, ptr %0, i64 8
  %.val39 = load ptr, ptr %4, align 8, !tbaa !18
  %.not = icmp eq ptr %.val39, null
  br i1 %.not, label %7, label %5

5:                                                ; preds = %3
  %6 = tail call i32 %1(ptr noundef nonnull %.val39, ptr noundef %2) #8
  %.not30.not = icmp eq i32 %6, 0
  br i1 %.not30.not, label %7, label %19

7:                                                ; preds = %5, %3
  %8 = getelementptr inbounds nuw i8, ptr %0, i64 24
  %9 = load ptr, ptr %8, align 8, !tbaa !111
  %.not31 = icmp eq ptr %9, null
  br i1 %.not31, label %12, label %10

10:                                               ; preds = %7
  %11 = tail call i32 %1(ptr noundef nonnull %9, ptr noundef %2) #8
  %.not32.not = icmp eq i32 %11, 0
  br i1 %.not32.not, label %12, label %19

12:                                               ; preds = %10, %7
  %13 = getelementptr inbounds nuw i8, ptr %0, i64 32
  %14 = load ptr, ptr %13, align 8, !tbaa !112
  %.not33 = icmp eq ptr %14, null
  br i1 %.not33, label %17, label %15

15:                                               ; preds = %12
  %16 = tail call i32 %1(ptr noundef nonnull %14, ptr noundef %2) #8
  %.not34.not = icmp eq i32 %16, 0
  br i1 %.not34.not, label %17, label %19

17:                                               ; preds = %15, %12
  %18 = tail call i32 @PyObject_VisitManagedDict(ptr noundef nonnull %0, ptr noundef %1, ptr noundef %2) #8
  br label %19

19:                                               ; preds = %15, %10, %5, %17
  %.1 = phi i32 [ %6, %5 ], [ %11, %10 ], [ %16, %15 ], [ 0, %17 ]
  ret i32 %.1
}